target datalayout = "e-m:e-p270:32:32-p271:32:32-p272:64:64-i64:64-i128:128-f80:128-n8:16:32:64-S128"
target triple = "x86_64-pc-linux-gnu"

@.str.2598 = private unnamed_addr constant [19 x i8] c"ObjectIdentifier: \00", align 1

; Function Attrs: null_pointer_is_valid sspstrong uwtable
define internal i32 @fTagNo(ptr noundef %0, i32 noundef %1) #0 {
  %3 = alloca ptr, align 8
  %4 = alloca i32, align 4
  store ptr %0, ptr %3, align 8
  store i32 %1, ptr %4, align 4
  %5 = load ptr, ptr %3, align 8
  %6 = load i32, ptr %4, align 4
  %7 = call zeroext i8 @tvb_get_uint8(ptr noundef %5, i32 noundef %6)
  %8 = zext i8 %7 to i32
  %9 = ashr i32 %8, 4
  ret i32 %9
}

; Function Attrs: null_pointer_is_valid sspstrong uwtable
define internal i32 @fGetEventInformationRequest(ptr noundef %0, ptr noundef %1, ptr noundef %2, i32 noundef %3) #0 {
  %5 = alloca ptr, align 8
  %6 = alloca ptr, align 8
  %7 = alloca ptr, align 8
  %8 = alloca i32, align 4
  store ptr %0, ptr %5, align 8
  store ptr %1, ptr %6, align 8
  store ptr %2, ptr %7, align 8
  store i32 %3, ptr %8, align 4
  %9 = load ptr, ptr %5, align 8
  %10 = load i32, ptr %8, align 4
  %11 = call i32 @tvb_reported_length_remaining(ptr noundef %9, i32 noundef %10)
  %12 = icmp sgt i32 %11, 0
  br i1 %12, label %13, label %25

13:                                               ; preds = %4
  %14 = load ptr, ptr %5, align 8
  %15 = load i32, ptr %8, align 4
  %16 = call i32 @fTagNo(ptr noundef %14, i32 noundef %15)
  %17 = icmp eq i32 %16, 0
  br i1 %17, label %18, label %24

18:                                               ; preds = %13
  %19 = load ptr, ptr %5, align 8
  %20 = load ptr, ptr %6, align 8
  %21 = load ptr, ptr %7, align 8
  %22 = load i32, ptr %8, align 4
  %23 = call i32 @fObjectIdentifier(ptr noundef %19, ptr noundef %20, ptr noundef %21, i32 noundef %22, ptr noundef @.str.2598)
  store i32 %23, ptr %8, align 4
  br label %24

24:                                               ; preds = %18, %13
  br label %25

25:                                               ; preds = %24, %4
  %26 = load i32, ptr %8, align 4
  ret i32 %26
}