; Function Attrs: null_pointer_is_valid sspstrong uwtable
define internal fastcc noundef i32 @fGetEventInformationRequest(ptr noundef nonnull %0, ptr noundef %1, ptr noundef %2, i32 noundef range(i32 0, 7) %3) unnamed_addr #0 {
  %5 = tail call i32 @tvb_reported_length_remaining(ptr noundef nonnull %0, i32 noundef %3)
  %6 = icmp sgt i32 %5, 0
  br i1 %6, label %7, label %12

7:                                                ; preds = %4
  %8 = tail call zeroext i8 @tvb_get_uint8(ptr noundef nonnull %0, i32 noundef %3)
  %9 = icmp ult i8 %8, 16
  br i1 %9, label %10, label %12

10:                                               ; preds = %7
  %11 = tail call fastcc i32 @fObjectIdentifier(ptr noundef %0, ptr noundef %1, ptr noundef %2, i32 noundef %3, ptr noundef nonnull @.str.2598)
  br label %12

12:                                               ; preds = %7, %10, %4
  %.0 = phi i32 [ %11, %10 ], [ %3, %7 ], [ %3, %4 ]
  ret i32 %.0
}